target datalayout = "e-m:e-p270:32:32-p271:32:32-p272:64:64-i64:64-i128:128-f80:128-n8:16:32:64-S128"
target triple = "x86_64-pc-linux-gnu"

%"class.duckdb::unique_ptr" = type { %"class.std::unique_ptr" }
%"class.std::unique_ptr" = type { %"struct.std::__uniq_ptr_data" }
%"struct.std::__uniq_ptr_data" = type { %"class.std::__uniq_ptr_impl" }
%"class.std::__uniq_ptr_impl" = type { %"class.std::tuple" }
%"class.std::tuple" = type { %"struct.std::_Tuple_impl" }
%"struct.std::_Tuple_impl" = type { %"struct.std::_Head_base.1" }
%"struct.std::_Head_base.1" = type { ptr }
%"class.std::unordered_map" = type { %"class.std::_Hashtable" }
%"class.std::_Hashtable" = type { ptr, i64, %"struct.std::__detail::_Hash_node_base", i64, %"struct.std::__detail::_Prime_rehash_policy", ptr }
%"struct.std::__detail::_Hash_node_base" = type { ptr }
%"struct.std::__detail::_Prime_rehash_policy" = type { float, i64 }

; Function Attrs: mustprogress nounwind uwtable
define linkonce_odr noundef nonnull align 8 dereferenceable(8) ptr @_ZNSt10_Head_baseILm0EPSt13unordered_mapINSt7__cxx1112basic_stringIcSt11char_traitsIcESaIcEEEN6duckdb7FieldIDENS7_33CaseInsensitiveStringHashFunctionENS7_29CaseInsensitiveStringEqualityESaISt4pairIKS6_S8_EEELb0EE7_M_headERSH_(ptr noundef nonnull align 8 dereferenceable(8) %0) #7 comdat align 2 {
  %2 = alloca ptr, align 8
  store ptr %0, ptr %2, align 8, !tbaa !550
  %3 = load ptr, ptr %2, align 8, !tbaa !550
  %4 = getelementptr inbounds nuw %"struct.std::_Head_base.1", ptr %3, i32 0, i32 0
  ret ptr %4
}

; Function Attrs: mustprogress nounwind uwtable
define linkonce_odr noundef nonnull align 8 dereferenceable(8) ptr @_ZNSt11_Tuple_implILm0EJPSt13unordered_mapINSt7__cxx1112basic_stringIcSt11char_traitsIcESaIcEEEN6duckdb7FieldIDENS7_33CaseInsensitiveStringHashFunctionENS7_29CaseInsensitiveStringEqualityESaISt4pairIKS6_S8_EEESt14default_deleteISF_EEE7_M_headERSJ_(ptr noundef nonnull align 8 dereferenceable(8) %0) #7 comdat align 2 {
  %2 = alloca ptr, align 8
  store ptr %0, ptr %2, align 8, !tbaa !548
  %3 = load ptr, ptr %2, align 8, !tbaa !548
  %4 = call noundef nonnull align 8 dereferenceable(8) ptr @_ZNSt10_Head_baseILm0EPSt13unordered_mapINSt7__cxx1112basic_stringIcSt11char_traitsIcESaIcEEEN6duckdb7FieldIDENS7_33CaseInsensitiveStringHashFunctionENS7_29CaseInsensitiveStringEqualityESaISt4pairIKS6_S8_EEELb0EE7_M_headERSH_(ptr noundef nonnull align 8 dereferenceable(8) %3) #3
  ret ptr %4
}

; Function Attrs: mustprogress nounwind uwtable
define linkonce_odr void @_ZNSt10_Head_baseILm1ESt14default_deleteISt13unordered_mapINSt7__cxx1112basic_stringIcSt11char_traitsIcESaIcEEEN6duckdb7FieldIDENS8_33CaseInsensitiveStringHashFunctionENS8_29CaseInsensitiveStringEqualityESaISt4pairIKS7_S9_EEEELb1EEC2Ev(ptr noundef nonnull align 1 dereferenceable(1) %0) unnamed_addr #7 comdat align 2 {
  %2 = alloca ptr, align 8
  store ptr %0, ptr %2, align 8, !tbaa !554
  ret void
}

; Function Attrs: mustprogress nounwind uwtable
define linkonce_odr noundef nonnull align 8 dereferenceable(8) ptr @_ZSt12__get_helperILm0EPSt13unordered_mapINSt7__cxx1112basic_stringIcSt11char_traitsIcESaIcEEEN6duckdb7FieldIDENS7_33CaseInsensitiveStringHashFunctionENS7_29CaseInsensitiveStringEqualityESaISt4pairIKS6_S8_EEEJSt14default_deleteISF_EEERT0_RSt11_Tuple_implIXT_EJSJ_DpT1_EE(ptr noundef nonnull align 8 dereferenceable(8) %0) #7 comdat {
  %2 = alloca ptr, align 8
  store ptr %0, ptr %2, align 8, !tbaa !548
  %3 = load ptr, ptr %2, align 8, !tbaa !548
  %4 = call noundef nonnull align 8 dereferenceable(8) ptr @_ZNSt11_Tuple_implILm0EJPSt13unordered_mapINSt7__cxx1112basic_stringIcSt11char_traitsIcESaIcEEEN6duckdb7FieldIDENS7_33CaseInsensitiveStringHashFunctionENS7_29CaseInsensitiveStringEqualityESaISt4pairIKS6_S8_EEESt14default_deleteISF_EEE7_M_headERSJ_(ptr noundef nonnull align 8 dereferenceable(8) %3) #3
  ret ptr %4
}

; Function Attrs: mustprogress nounwind uwtable
define linkonce_odr void @_ZNSt10_Head_baseILm0EPSt13unordered_mapINSt7__cxx1112basic_stringIcSt11char_traitsIcESaIcEEEN6duckdb7FieldIDENS7_33CaseInsensitiveStringHashFunctionENS7_29CaseInsensitiveStringEqualityESaISt4pairIKS6_S8_EEELb0EEC2Ev(ptr noundef nonnull align 8 dereferenceable(8) %0) unnamed_addr #7 comdat align 2 {
  %2 = alloca ptr, align 8
  store ptr %0, ptr %2, align 8, !tbaa !550
  %3 = load ptr, ptr %2, align 8
  %4 = getelementptr inbounds nuw %"struct.std::_Head_base.1", ptr %3, i32 0, i32 0
  store ptr null, ptr %4, align 8, !tbaa !966
  ret void
}

; Function Attrs: mustprogress uwtable
define linkonce_odr void @_ZNSt11_Tuple_implILm1EJSt14default_deleteISt13unordered_mapINSt7__cxx1112basic_stringIcSt11char_traitsIcESaIcEEEN6duckdb7FieldIDENS8_33CaseInsensitiveStringHashFunctionENS8_29CaseInsensitiveStringEqualityESaISt4pairIKS7_S9_EEEEEEC2Ev(ptr noundef nonnull align 1 dereferenceable(1) %0) unnamed_addr #4 comdat align 2 {
  %2 = alloca ptr, align 8
  store ptr %0, ptr %2, align 8, !tbaa !552
  %3 = load ptr, ptr %2, align 8
  call void @_ZNSt10_Head_baseILm1ESt14default_deleteISt13unordered_mapINSt7__cxx1112basic_stringIcSt11char_traitsIcESaIcEEEN6duckdb7FieldIDENS8_33CaseInsensitiveStringHashFunctionENS8_29CaseInsensitiveStringEqualityESaISt4pairIKS7_S9_EEEELb1EEC2Ev(ptr noundef nonnull align 1 dereferenceable(1) %3)
  ret void
}

; Function Attrs: mustprogress nounwind uwtable
define linkonce_odr noundef nonnull align 8 dereferenceable(8) ptr @_ZSt3getILm0EJPSt13unordered_mapINSt7__cxx1112basic_stringIcSt11char_traitsIcESaIcEEEN6duckdb7FieldIDENS7_33CaseInsensitiveStringHashFunctionENS7_29CaseInsensitiveStringEqualityESaISt4pairIKS6_S8_EEESt14default_deleteISF_EEERNSt13tuple_elementIXT_ESt5tupleIJDpT0_EEE4typeERSN_(ptr noundef nonnull align 8 dereferenceable(8) %0) #7 comdat {
  %2 = alloca ptr, align 8
  store ptr %0, ptr %2, align 8, !tbaa !546
  %3 = load ptr, ptr %2, align 8, !tbaa !546
  %4 = call noundef nonnull align 8 dereferenceable(8) ptr @_ZSt12__get_helperILm0EPSt13unordered_mapINSt7__cxx1112basic_stringIcSt11char_traitsIcESaIcEEEN6duckdb7FieldIDENS7_33CaseInsensitiveStringHashFunctionENS7_29CaseInsensitiveStringEqualityESaISt4pairIKS6_S8_EEEJSt14default_deleteISF_EEERT0_RSt11_Tuple_implIXT_EJSJ_DpT1_EE(ptr noundef nonnull align 8 dereferenceable(8) %3) #3
  ret ptr %4
}

; Function Attrs: mustprogress uwtable
define linkonce_odr void @_ZNSt11_Tuple_implILm0EJPSt13unordered_mapINSt7__cxx1112basic_stringIcSt11char_traitsIcESaIcEEEN6duckdb7FieldIDENS7_33CaseInsensitiveStringHashFunctionENS7_29CaseInsensitiveStringEqualityESaISt4pairIKS6_S8_EEESt14default_deleteISF_EEEC2Ev(ptr noundef nonnull align 8 dereferenceable(8) %0) unnamed_addr #4 comdat align 2 {
  %2 = alloca ptr, align 8
  store ptr %0, ptr %2, align 8, !tbaa !548
  %3 = load ptr, ptr %2, align 8
  call void @_ZNSt11_Tuple_implILm1EJSt14default_deleteISt13unordered_mapINSt7__cxx1112basic_stringIcSt11char_traitsIcESaIcEEEN6duckdb7FieldIDENS8_33CaseInsensitiveStringHashFunctionENS8_29CaseInsensitiveStringEqualityESaISt4pairIKS7_S9_EEEEEEC2Ev(ptr noundef nonnull align 1 dereferenceable(1) %3)
  call void @_ZNSt10_Head_baseILm0EPSt13unordered_mapINSt7__cxx1112basic_stringIcSt11char_traitsIcESaIcEEEN6duckdb7FieldIDENS7_33CaseInsensitiveStringHashFunctionENS7_29CaseInsensitiveStringEqualityESaISt4pairIKS6_S8_EEELb0EEC2Ev(ptr noundef nonnull align 8 dereferenceable(8) %3)
  ret void
}

; Function Attrs: mustprogress nounwind uwtable
define linkonce_odr void @_ZNSt15__new_allocatorINSt8__detail10_Hash_nodeISt4pairIKNSt7__cxx1112basic_stringIcSt11char_traitsIcESaIcEEEN6duckdb7FieldIDEELb1EEEEC2Ev(ptr noundef nonnull align 1 dereferenceable(1) %0) unnamed_addr #7 comdat align 2 {
  %2 = alloca ptr, align 8
  store ptr %0, ptr %2, align 8, !tbaa !568
  ret void
}

; Function Attrs: mustprogress nounwind uwtable
define linkonce_odr noundef nonnull align 8 dereferenceable(8) ptr @_ZNSt15__uniq_ptr_implISt13unordered_mapINSt7__cxx1112basic_stringIcSt11char_traitsIcESaIcEEEN6duckdb7FieldIDENS7_33CaseInsensitiveStringHashFunctionENS7_29CaseInsensitiveStringEqualityESaISt4pairIKS6_S8_EEESt14default_deleteISF_EE6_M_ptrEv(ptr noundef nonnull align 8 dereferenceable(8) %0) #7 comdat align 2 {
  %2 = alloca ptr, align 8
  store ptr %0, ptr %2, align 8, !tbaa !542
  %3 = load ptr, ptr %2, align 8
  %4 = getelementptr inbounds nuw %"class.std::__uniq_ptr_impl", ptr %3, i32 0, i32 0
  %5 = call noundef nonnull align 8 dereferenceable(8) ptr @_ZSt3getILm0EJPSt13unordered_mapINSt7__cxx1112basic_stringIcSt11char_traitsIcESaIcEEEN6duckdb7FieldIDENS7_33CaseInsensitiveStringHashFunctionENS7_29CaseInsensitiveStringEqualityESaISt4pairIKS6_S8_EEESt14default_deleteISF_EEERNSt13tuple_elementIXT_ESt5tupleIJDpT0_EEE4typeERSN_(ptr noundef nonnull align 8 dereferenceable(8) %4) #3
  ret ptr %5
}

; Function Attrs: mustprogress nounwind uwtable
define linkonce_odr void @_ZNSt5tupleIJPSt13unordered_mapINSt7__cxx1112basic_stringIcSt11char_traitsIcESaIcEEEN6duckdb7FieldIDENS7_33CaseInsensitiveStringHashFunctionENS7_29CaseInsensitiveStringEqualityESaISt4pairIKS6_S8_EEESt14default_deleteISF_EEEC2ILb1ETnNSt9enable_ifIXclsr17_TupleConstraintsIXT_ESG_SI_EE37__is_implicitly_default_constructibleEEbE4typeELb1EEEv(ptr noundef nonnull align 8 dereferenceable(8) %0) unnamed_addr #7 comdat align 2 personality ptr @__gxx_personality_v0 {
  %2 = alloca ptr, align 8
  store ptr %0, ptr %2, align 8, !tbaa !546
  %3 = load ptr, ptr %2, align 8
  invoke void @_ZNSt11_Tuple_implILm0EJPSt13unordered_mapINSt7__cxx1112basic_stringIcSt11char_traitsIcESaIcEEEN6duckdb7FieldIDENS7_33CaseInsensitiveStringHashFunctionENS7_29CaseInsensitiveStringEqualityESaISt4pairIKS6_S8_EEESt14default_deleteISF_EEEC2Ev(ptr noundef nonnull align 8 dereferenceable(8) %3)
          to label %4 unwind label %5

4:                                                ; preds = %1
  ret void

5:                                                ; preds = %1
  %6 = landingpad { ptr, i32 }
          catch ptr null
  %7 = extractvalue { ptr, i32 } %6, 0
  call void @__clang_call_terminate(ptr %7) #23
  unreachable
}

; Function Attrs: mustprogress nounwind uwtable
define linkonce_odr void @_ZNSaINSt8__detail10_Hash_nodeISt4pairIKNSt7__cxx1112basic_stringIcSt11char_traitsIcESaIcEEEN6duckdb7FieldIDEELb1EEEEC2Ev(ptr noundef nonnull align 1 dereferenceable(1) %0) unnamed_addr #7 comdat align 2 {
  %2 = alloca ptr, align 8
  store ptr %0, ptr %2, align 8, !tbaa !575
  %3 = load ptr, ptr %2, align 8
  call void @_ZNSt15__new_allocatorINSt8__detail10_Hash_nodeISt4pairIKNSt7__cxx1112basic_stringIcSt11char_traitsIcESaIcEEEN6duckdb7FieldIDEELb1EEEEC2Ev(ptr noundef nonnull align 1 dereferenceable(1) %3) #3
  ret void
}

; Function Attrs: mustprogress nounwind uwtable
define linkonce_odr void @_ZNSt8__detail21_Hashtable_ebo_helperILi1EN6duckdb33CaseInsensitiveStringHashFunctionELb1EEC2Ev(ptr noundef nonnull align 1 dereferenceable(1) %0) unnamed_addr #7 comdat align 2 {
  %2 = alloca ptr, align 8
  store ptr %0, ptr %2, align 8, !tbaa !964
  ret void
}

; Function Attrs: mustprogress nounwind uwtable
define linkonce_odr void @_ZNSt15__uniq_ptr_implISt13unordered_mapINSt7__cxx1112basic_stringIcSt11char_traitsIcESaIcEEEN6duckdb7FieldIDENS7_33CaseInsensitiveStringHashFunctionENS7_29CaseInsensitiveStringEqualityESaISt4pairIKS6_S8_EEESt14default_deleteISF_EEC2EPSF_(ptr noundef nonnull align 8 dereferenceable(8) %0, ptr noundef %1) unnamed_addr #7 comdat align 2 {
  %3 = alloca ptr, align 8
  %4 = alloca ptr, align 8
  store ptr %0, ptr %3, align 8, !tbaa !542
  store ptr %1, ptr %4, align 8, !tbaa !8
  %5 = load ptr, ptr %3, align 8
  %6 = getelementptr inbounds nuw %"class.std::__uniq_ptr_impl", ptr %5, i32 0, i32 0
  call void @_ZNSt5tupleIJPSt13unordered_mapINSt7__cxx1112basic_stringIcSt11char_traitsIcESaIcEEEN6duckdb7FieldIDENS7_33CaseInsensitiveStringHashFunctionENS7_29CaseInsensitiveStringEqualityESaISt4pairIKS6_S8_EEESt14default_deleteISF_EEEC2ILb1ETnNSt9enable_ifIXclsr17_TupleConstraintsIXT_ESG_SI_EE37__is_implicitly_default_constructibleEEbE4typeELb1EEEv(ptr noundef nonnull align 8 dereferenceable(8) %6) #3
  %7 = load ptr, ptr %4, align 8, !tbaa !8
  %8 = call noundef nonnull align 8 dereferenceable(8) ptr @_ZNSt15__uniq_ptr_implISt13unordered_mapINSt7__cxx1112basic_stringIcSt11char_traitsIcESaIcEEEN6duckdb7FieldIDENS7_33CaseInsensitiveStringHashFunctionENS7_29CaseInsensitiveStringEqualityESaISt4pairIKS6_S8_EEESt14default_deleteISF_EE6_M_ptrEv(ptr noundef nonnull align 8 dereferenceable(8) %5) #3
  store ptr %7, ptr %8, align 8, !tbaa !8
  ret void
}

; Function Attrs: mustprogress nounwind uwtable
define linkonce_odr void @_ZNSt8__detail21_Hashtable_ebo_helperILi0ESaINS_10_Hash_nodeISt4pairIKNSt7__cxx1112basic_stringIcSt11char_traitsIcESaIcEEEN6duckdb7FieldIDEELb1EEEELb1EEC2Ev(ptr noundef nonnull align 1 dereferenceable(1) %0) unnamed_addr #7 comdat align 2 {
  %2 = alloca ptr, align 8
  store ptr %0, ptr %2, align 8, !tbaa !579
  %3 = load ptr, ptr %2, align 8
  call void @_ZNSaINSt8__detail10_Hash_nodeISt4pairIKNSt7__cxx1112basic_stringIcSt11char_traitsIcESaIcEEEN6duckdb7FieldIDEELb1EEEEC2Ev(ptr noundef nonnull align 1 dereferenceable(1) %3) #3
  ret void
}

; Function Attrs: mustprogress nounwind uwtable
define linkonce_odr void @_ZNSt8__detail21_Hashtable_ebo_helperILi0EN6duckdb29CaseInsensitiveStringEqualityELb1EEC2Ev(ptr noundef nonnull align 1 dereferenceable(1) %0) unnamed_addr #7 comdat align 2 {
  %2 = alloca ptr, align 8
  store ptr %0, ptr %2, align 8, !tbaa !962
  ret void
}

; Function Attrs: mustprogress nounwind uwtable
define linkonce_odr void @_ZNSt8__detail15_Hash_code_baseINSt7__cxx1112basic_stringIcSt11char_traitsIcESaIcEEESt4pairIKS6_N6duckdb7FieldIDEENS_10_Select1stENS9_33CaseInsensitiveStringHashFunctionENS_18_Mod_range_hashingENS_20_Default_ranged_hashELb1EEC2Ev(ptr noundef nonnull align 1 dereferenceable(1) %0) unnamed_addr #7 comdat align 2 {
  %2 = alloca ptr, align 8
  store ptr %0, ptr %2, align 8, !tbaa !960
  %3 = load ptr, ptr %2, align 8
  call void @_ZNSt8__detail21_Hashtable_ebo_helperILi1EN6duckdb33CaseInsensitiveStringHashFunctionELb1EEC2Ev(ptr noundef nonnull align 1 dereferenceable(1) %3) #3
  ret void
}

; Function Attrs: noinline noreturn nounwind uwtable
define linkonce_odr hidden void @__clang_call_terminate(ptr noundef %0) #10 comdat {
  %2 = call ptr @__cxa_begin_catch(ptr %0) #3
  call void @_ZSt9terminatev() #23
  unreachable
}

; Function Attrs: inlinehint mustprogress uwtable
define linkonce_odr void @_ZNSt15__uniq_ptr_dataISt13unordered_mapINSt7__cxx1112basic_stringIcSt11char_traitsIcESaIcEEEN6duckdb7FieldIDENS7_33CaseInsensitiveStringHashFunctionENS7_29CaseInsensitiveStringEqualityESaISt4pairIKS6_S8_EEESt14default_deleteISF_ELb1ELb1EECI2St15__uniq_ptr_implISF_SH_EEPSF_(ptr noundef nonnull align 8 dereferenceable(8) %0, ptr noundef %1) unnamed_addr #5 comdat align 2 {
  %3 = alloca ptr, align 8
  %4 = alloca ptr, align 8
  store ptr %0, ptr %3, align 8, !tbaa !588
  store ptr %1, ptr %4, align 8, !tbaa !8
  %5 = load ptr, ptr %3, align 8
  %6 = load ptr, ptr %4, align 8, !tbaa !8
  call void @_ZNSt15__uniq_ptr_implISt13unordered_mapINSt7__cxx1112basic_stringIcSt11char_traitsIcESaIcEEEN6duckdb7FieldIDENS7_33CaseInsensitiveStringHashFunctionENS7_29CaseInsensitiveStringEqualityESaISt4pairIKS6_S8_EEESt14default_deleteISF_EEC2EPSF_(ptr noundef nonnull align 8 dereferenceable(8) %5, ptr noundef %6)
  ret void
}

; Function Attrs: mustprogress nounwind uwtable
define linkonce_odr void @_ZNSt8__detail20_Prime_rehash_policyC2Ef(ptr noundef nonnull align 8 dereferenceable(16) %0, float noundef %1) unnamed_addr #7 comdat align 2 {
  %3 = alloca ptr, align 8
  %4 = alloca float, align 4
  store ptr %0, ptr %3, align 8, !tbaa !955
  store float %1, ptr %4, align 4, !tbaa !957
  %5 = load ptr, ptr %3, align 8
  %6 = getelementptr inbounds nuw %"struct.std::__detail::_Prime_rehash_policy", ptr %5, i32 0, i32 0
  %7 = load float, ptr %4, align 4, !tbaa !957
  store float %7, ptr %6, align 8, !tbaa !958
  %8 = getelementptr inbounds nuw %"struct.std::__detail::_Prime_rehash_policy", ptr %5, i32 0, i32 1
  store i64 0, ptr %8, align 8, !tbaa !959
  ret void
}

; Function Attrs: mustprogress nounwind uwtable
define linkonce_odr void @_ZNSt8__detail15_Hash_node_baseC2Ev(ptr noundef nonnull align 8 dereferenceable(8) %0) unnamed_addr #7 comdat align 2 {
  %2 = alloca ptr, align 8
  store ptr %0, ptr %2, align 8, !tbaa !954
  %3 = load ptr, ptr %2, align 8
  %4 = getelementptr inbounds nuw %"struct.std::__detail::_Hash_node_base", ptr %3, i32 0, i32 0
  store ptr null, ptr %4, align 8, !tbaa !574
  ret void
}

; Function Attrs: mustprogress nounwind uwtable
define linkonce_odr void @_ZNSt8__detail16_Hashtable_allocISaINS_10_Hash_nodeISt4pairIKNSt7__cxx1112basic_stringIcSt11char_traitsIcESaIcEEEN6duckdb7FieldIDEELb1EEEEEC2Ev(ptr noundef nonnull align 1 dereferenceable(1) %0) unnamed_addr #7 comdat align 2 {
  %2 = alloca ptr, align 8
  store ptr %0, ptr %2, align 8, !tbaa !570
  %3 = load ptr, ptr %2, align 8
  call void @_ZNSt8__detail21_Hashtable_ebo_helperILi0ESaINS_10_Hash_nodeISt4pairIKNSt7__cxx1112basic_stringIcSt11char_traitsIcESaIcEEEN6duckdb7FieldIDEELb1EEEELb1EEC2Ev(ptr noundef nonnull align 1 dereferenceable(1) %3) #3
  ret void
}

; Function Attrs: mustprogress nounwind uwtable
define linkonce_odr void @_ZNSt8__detail15_Hashtable_baseINSt7__cxx1112basic_stringIcSt11char_traitsIcESaIcEEESt4pairIKS6_N6duckdb7FieldIDEENS_10_Select1stENS9_29CaseInsensitiveStringEqualityENS9_33CaseInsensitiveStringHashFunctionENS_18_Mod_range_hashingENS_20_Default_ranged_hashENS_17_Hashtable_traitsILb1ELb0ELb1EEEEC2Ev(ptr noundef nonnull align 1 dereferenceable(1) %0) unnamed_addr #7 comdat align 2 {
  %2 = alloca ptr, align 8
  store ptr %0, ptr %2, align 8, !tbaa !952
  %3 = load ptr, ptr %2, align 8
  call void @_ZNSt8__detail15_Hash_code_baseINSt7__cxx1112basic_stringIcSt11char_traitsIcESaIcEEESt4pairIKS6_N6duckdb7FieldIDEENS_10_Select1stENS9_33CaseInsensitiveStringHashFunctionENS_18_Mod_range_hashingENS_20_Default_ranged_hashELb1EEC2Ev(ptr noundef nonnull align 1 dereferenceable(1) %3) #3
  call void @_ZNSt8__detail21_Hashtable_ebo_helperILi0EN6duckdb29CaseInsensitiveStringEqualityELb1EEC2Ev(ptr noundef nonnull align 1 dereferenceable(1) %3) #3
  ret void
}

; Function Attrs: mustprogress nounwind uwtable
define linkonce_odr void @_ZNSt10unique_ptrISt13unordered_mapINSt7__cxx1112basic_stringIcSt11char_traitsIcESaIcEEEN6duckdb7FieldIDENS7_33CaseInsensitiveStringHashFunctionENS7_29CaseInsensitiveStringEqualityESaISt4pairIKS6_S8_EEESt14default_deleteISF_EEC2ISH_vEEPSF_(ptr noundef nonnull align 8 dereferenceable(8) %0, ptr noundef %1) unnamed_addr #7 comdat align 2 personality ptr @__gxx_personality_v0 {
  %3 = alloca ptr, align 8
  %4 = alloca ptr, align 8
  store ptr %0, ptr %3, align 8, !tbaa !538
  store ptr %1, ptr %4, align 8, !tbaa !8
  %5 = load ptr, ptr %3, align 8
  %6 = getelementptr inbounds nuw %"class.std::unique_ptr", ptr %5, i32 0, i32 0
  %7 = load ptr, ptr %4, align 8, !tbaa !8
  invoke void @_ZNSt15__uniq_ptr_dataISt13unordered_mapINSt7__cxx1112basic_stringIcSt11char_traitsIcESaIcEEEN6duckdb7FieldIDENS7_33CaseInsensitiveStringHashFunctionENS7_29CaseInsensitiveStringEqualityESaISt4pairIKS6_S8_EEESt14default_deleteISF_ELb1ELb1EECI2St15__uniq_ptr_implISF_SH_EEPSF_(ptr noundef nonnull align 8 dereferenceable(8) %6, ptr noundef %7)
          to label %8 unwind label %9

8:                                                ; preds = %2
  ret void

9:                                                ; preds = %2
  %10 = landingpad { ptr, i32 }
          catch ptr null
  %11 = extractvalue { ptr, i32 } %10, 0
  call void @__clang_call_terminate(ptr %11) #23
  unreachable
}

; Function Attrs: mustprogress nounwind uwtable
define linkonce_odr void @_ZNSt10_HashtableINSt7__cxx1112basic_stringIcSt11char_traitsIcESaIcEEESt4pairIKS5_N6duckdb7FieldIDEESaISA_ENSt8__detail10_Select1stENS8_29CaseInsensitiveStringEqualityENS8_33CaseInsensitiveStringHashFunctionENSC_18_Mod_range_hashingENSC_20_Default_ranged_hashENSC_20_Prime_rehash_policyENSC_17_Hashtable_traitsILb1ELb0ELb1EEEEC2Ev(ptr noundef nonnull align 8 dereferenceable(56) %0) unnamed_addr #7 comdat align 2 {
  %2 = alloca ptr, align 8
  store ptr %0, ptr %2, align 8, !tbaa !556
  %3 = load ptr, ptr %2, align 8
  call void @_ZNSt8__detail15_Hashtable_baseINSt7__cxx1112basic_stringIcSt11char_traitsIcESaIcEEESt4pairIKS6_N6duckdb7FieldIDEENS_10_Select1stENS9_29CaseInsensitiveStringEqualityENS9_33CaseInsensitiveStringHashFunctionENS_18_Mod_range_hashingENS_20_Default_ranged_hashENS_17_Hashtable_traitsILb1ELb0ELb1EEEEC2Ev(ptr noundef nonnull align 1 dereferenceable(1) %3) #3
  call void @_ZNSt8__detail16_Hashtable_allocISaINS_10_Hash_nodeISt4pairIKNSt7__cxx1112basic_stringIcSt11char_traitsIcESaIcEEEN6duckdb7FieldIDEELb1EEEEEC2Ev(ptr noundef nonnull align 1 dereferenceable(1) %3) #3
  %4 = getelementptr inbounds nuw %"class.std::_Hashtable", ptr %3, i32 0, i32 0
  %5 = getelementptr inbounds nuw %"class.std::_Hashtable", ptr %3, i32 0, i32 5
  store ptr %5, ptr %4, align 8, !tbaa !558
  %6 = getelementptr inbounds nuw %"class.std::_Hashtable", ptr %3, i32 0, i32 1
  store i64 1, ptr %6, align 8, !tbaa !565
  %7 = getelementptr inbounds nuw %"class.std::_Hashtable", ptr %3, i32 0, i32 2
  call void @_ZNSt8__detail15_Hash_node_baseC2Ev(ptr noundef nonnull align 8 dereferenceable(8) %7) #3
  %8 = getelementptr inbounds nuw %"class.std::_Hashtable", ptr %3, i32 0, i32 3
  store i64 0, ptr %8, align 8, !tbaa !566
  %9 = getelementptr inbounds nuw %"class.std::_Hashtable", ptr %3, i32 0, i32 4
  call void @_ZNSt8__detail20_Prime_rehash_policyC2Ef(ptr noundef nonnull align 8 dereferenceable(16) %9, float noundef 1.000000e+00) #3
  %10 = getelementptr inbounds nuw %"class.std::_Hashtable", ptr %3, i32 0, i32 5
  store ptr null, ptr %10, align 8, !tbaa !951
  ret void
}

; Function Attrs: inlinehint mustprogress nounwind uwtable
define linkonce_odr void @_ZN6duckdb10unique_ptrISt13unordered_mapINSt7__cxx1112basic_stringIcSt11char_traitsIcESaIcEEENS_7FieldIDENS_33CaseInsensitiveStringHashFunctionENS_29CaseInsensitiveStringEqualityESaISt4pairIKS7_S8_EEESt14default_deleteISF_ELb1EECI2St10unique_ptrISF_SH_EISH_vEEPSF_(ptr noundef nonnull align 8 dereferenceable(8) %0, ptr noundef %1) unnamed_addr #8 comdat align 2 {
  %3 = alloca ptr, align 8
  %4 = alloca ptr, align 8
  store ptr %0, ptr %3, align 8, !tbaa !12
  store ptr %1, ptr %4, align 8, !tbaa !8
  %5 = load ptr, ptr %3, align 8
  %6 = load ptr, ptr %4, align 8, !tbaa !8
  call void @_ZNSt10unique_ptrISt13unordered_mapINSt7__cxx1112basic_stringIcSt11char_traitsIcESaIcEEEN6duckdb7FieldIDENS7_33CaseInsensitiveStringHashFunctionENS7_29CaseInsensitiveStringEqualityESaISt4pairIKS6_S8_EEESt14default_deleteISF_EEC2ISH_vEEPSF_(ptr noundef nonnull align 8 dereferenceable(8) %5, ptr noundef %6) #3
  ret void
}

; Function Attrs: mustprogress nounwind uwtable
define linkonce_odr void @_ZNSt13unordered_mapINSt7__cxx1112basic_stringIcSt11char_traitsIcESaIcEEEN6duckdb7FieldIDENS6_33CaseInsensitiveStringHashFunctionENS6_29CaseInsensitiveStringEqualityESaISt4pairIKS5_S7_EEEC2Ev(ptr noundef nonnull align 8 dereferenceable(56) %0) unnamed_addr #7 comdat align 2 {
  %2 = alloca ptr, align 8
  store ptr %0, ptr %2, align 8, !tbaa !8
  %3 = load ptr, ptr %2, align 8
  %4 = getelementptr inbounds nuw %"class.std::unordered_map", ptr %3, i32 0, i32 0
  call void @_ZNSt10_HashtableINSt7__cxx1112basic_stringIcSt11char_traitsIcESaIcEEESt4pairIKS5_N6duckdb7FieldIDEESaISA_ENSt8__detail10_Select1stENS8_29CaseInsensitiveStringEqualityENS8_33CaseInsensitiveStringHashFunctionENSC_18_Mod_range_hashingENSC_20_Default_ranged_hashENSC_20_Prime_rehash_policyENSC_17_Hashtable_traitsILb1ELb0ELb1EEEEC2Ev(ptr noundef nonnull align 8 dereferenceable(56) %4) #3
  ret void
}

; Function Attrs: inlinehint mustprogress uwtable
define linkonce_odr void @_ZN6duckdb9make_uniqISt13unordered_mapINSt7__cxx1112basic_stringIcSt11char_traitsIcESaIcEEENS_7FieldIDENS_33CaseInsensitiveStringHashFunctionENS_29CaseInsensitiveStringEqualityESaISt4pairIKS7_S8_EEEJEEENS_17TemplatedUniqueIfIT_Lb1EE25templated_unique_single_tEDpOT0_(ptr dead_on_unwind noalias writable sret(%"class.duckdb::unique_ptr") align 8 %0) #5 comdat {
  %2 = alloca ptr, align 8
  store ptr %0, ptr %2, align 8
  %3 = call noalias noundef nonnull ptr @_Znwm(i64 noundef 56) #21
  call void @llvm.memset.p0.i64(ptr align 16 %3, i8 0, i64 56, i1 false)
  call void @_ZNSt13unordered_mapINSt7__cxx1112basic_stringIcSt11char_traitsIcESaIcEEEN6duckdb7FieldIDENS6_33CaseInsensitiveStringHashFunctionENS6_29CaseInsensitiveStringEqualityESaISt4pairIKS5_S7_EEEC2Ev(ptr noundef nonnull align 8 dereferenceable(56) %3) #3
  call void @_ZN6duckdb10unique_ptrISt13unordered_mapINSt7__cxx1112basic_stringIcSt11char_traitsIcESaIcEEENS_7FieldIDENS_33CaseInsensitiveStringHashFunctionENS_29CaseInsensitiveStringEqualityESaISt4pairIKS7_S8_EEESt14default_deleteISF_ELb1EECI2St10unique_ptrISF_SH_EISH_vEEPSF_(ptr noundef nonnull align 8 dereferenceable(8) %0, ptr noundef %3) #3
  ret void
}

; Function Attrs: mustprogress uwtable
define void @_ZN6duckdb13ChildFieldIDsC2Ev(ptr noundef nonnull align 8 dereferenceable(8) %0) unnamed_addr #4 align 2 {
  %2 = alloca ptr, align 8
  store ptr %0, ptr %2, align 8, !tbaa !3
  %3 = load ptr, ptr %2, align 8
  call void @_ZN6duckdb9make_uniqISt13unordered_mapINSt7__cxx1112basic_stringIcSt11char_traitsIcESaIcEEENS_7FieldIDENS_33CaseInsensitiveStringHashFunctionENS_29CaseInsensitiveStringEqualityESaISt4pairIKS7_S8_EEEJEEENS_17TemplatedUniqueIfIT_Lb1EE25templated_unique_single_tEDpOT0_(ptr dead_on_unwind writable sret(%"class.duckdb::unique_ptr") align 8 %3)
  ret void
}