; Function Attrs: mustprogress uwtable
define void @_ZN6duckdb13ChildFieldIDsC2Ev(ptr noundef nonnull writeonly align 8 captures(none) dereferenceable(8) initializes((0, 8)) %0) unnamed_addr #3 align 2 personality ptr @__gxx_personality_v0 {
  tail call void @llvm.experimental.noalias.scope.decl(metadata !3)
  %2 = tail call noalias noundef nonnull dereferenceable(56) ptr @_Znwm(i64 noundef 56) #26, !noalias !3
  %3 = getelementptr inbounds nuw i8, ptr %2, i64 32
  tail call void @llvm.memset.p0.i64(ptr noundef nonnull align 16 dereferenceable(56) %3, i8 0, i64 16, i1 false), !noalias !3
  %4 = getelementptr inbounds nuw i8, ptr %2, i64 48
  store ptr %4, ptr %2, align 8, !tbaa !6, !noalias !3
  %5 = getelementptr inbounds nuw i8, ptr %2, i64 8
  store i64 1, ptr %5, align 8, !tbaa !17, !noalias !3
  %6 = getelementptr inbounds nuw i8, ptr %2, i64 16
  tail call void @llvm.memset.p0.i64(ptr noundef nonnull align 8 dereferenceable(16) %6, i8 0, i64 16, i1 false), !noalias !3
  store float 1.000000e+00, ptr %3, align 8, !tbaa !18, !noalias !3
  %7 = getelementptr inbounds nuw i8, ptr %2, i64 40
  tail call void @llvm.memset.p0.i64(ptr noundef nonnull align 8 dereferenceable(16) %7, i8 0, i64 16, i1 false), !noalias !3
  store ptr %2, ptr %0, align 8, !tbaa !19, !alias.scope !3
  ret void
}